; Function Attrs: nounwind uwtable
define ptr @l_Lean_Meta_Grind_ematch___lambda__2___boxed(ptr noundef %0, ptr noundef %1, ptr noundef %2, ptr noundef %3, ptr noundef %4, ptr noundef %5, ptr noundef %6, ptr noundef %7, ptr noundef %8, ptr noundef %9, ptr noundef %10, ptr noundef %11, ptr noundef %12) #0 {
  %14 = tail call ptr @l_Lean_Meta_Grind_ematch___lambda__2(ptr noundef %0, ptr poison, ptr noundef %2, ptr noundef %3, ptr noundef %4, ptr noundef %5, ptr noundef %6, ptr noundef %7, ptr noundef %8, ptr noundef %9, ptr noundef %10, ptr noundef %11, ptr noundef %12)
  %15 = ptrtoint ptr %1 to i64
  %16 = and i64 %15, 1
  %.not = icmp eq i64 %16, 0
  br i1 %.not, label %17, label %lean_dec.exit16

17:                                               ; preds = %13
  %18 = load i32, ptr %1, align 4, !tbaa !8
  %19 = icmp sgt i32 %18, 1
  br i1 %19, label %20, label %22, !prof !11

20:                                               ; preds = %17
  %21 = add nsw i32 %18, -1
  store i32 %21, ptr %1, align 4, !tbaa !8
  br label %lean_dec.exit16

22:                                               ; preds = %17
  %.not.i = icmp eq i32 %18, 0
  br i1 %.not.i, label %lean_dec.exit16, label %23

23:                                               ; preds = %22
  tail call void @lean_dec_ref_cold(ptr noundef nonnull %1) #5
  br label %lean_dec.exit16

lean_dec.exit16:                                  ; preds = %23, %22, %20, %13
  %24 = ptrtoint ptr %0 to i64
  %25 = and i64 %24, 1
  %.not19 = icmp eq i64 %25, 0
  br i1 %.not19, label %26, label %lean_dec.exit

26:                                               ; preds = %lean_dec.exit16
  %27 = load i32, ptr %0, align 4, !tbaa !8
  %28 = icmp sgt i32 %27, 1
  br i1 %28, label %29, label %31, !prof !11

29:                                               ; preds = %26
  %30 = add nsw i32 %27, -1
  store i32 %30, ptr %0, align 4, !tbaa !8
  br label %lean_dec.exit

31:                                               ; preds = %26
  %.not.i17 = icmp eq i32 %27, 0
  br i1 %.not.i17, label %lean_dec.exit, label %32

32:                                               ; preds = %31
  tail call void @lean_dec_ref_cold(ptr noundef nonnull %0) #5
  br label %lean_dec.exit

lean_dec.exit:                                    ; preds = %32, %31, %29, %lean_dec.exit16
  ret ptr %14
}